target datalayout = "e-m:e-p270:32:32-p271:32:32-p272:64:64-i64:64-i128:128-f80:128-n8:16:32:64-S128"
target triple = "x86_64-pc-linux-gnu"

%struct.in6_addr = type { %union.anon.0 }
%union.anon.0 = type { [4 x i32] }
%"class.std::__cxx11::basic_string" = type { %"struct.std::__cxx11::basic_string<char>::_Alloc_hider", i64, %union.anon }
%"struct.std::__cxx11::basic_string<char>::_Alloc_hider" = type { ptr }
%union.anon = type { i64, [8 x i8] }
%struct.sockaddr_in6 = type { i16, i16, i32, %struct.in6_addr, i32 }

@.str.2 = private unnamed_addr constant [7 x i8] c"socket\00", align 1
@.str.5 = private unnamed_addr constant [8 x i8] c"connect\00", align 1
@in6addr_any = external global %struct.in6_addr, align 4

; Function Attrs: noinline noreturn nounwind uwtable
define linkonce_odr hidden void @__clang_call_terminate(ptr noundef %0) #10 comdat {
  %2 = call ptr @__cxa_begin_catch(ptr %0) #16
  call void @_ZSt9terminatev() #17
  unreachable
}

; Function Attrs: mustprogress nounwind uwtable
define available_externally noundef ptr @_ZNKSt7__cxx1112basic_stringIcSt11char_traitsIcESaIcEE7_M_dataEv(ptr noundef nonnull align 8 dereferenceable(32) %0) #0 align 2 {
  %2 = alloca ptr, align 8
  store ptr %0, ptr %2, align 8, !tbaa !11
  %3 = load ptr, ptr %2, align 8
  %4 = getelementptr inbounds nuw %"class.std::__cxx11::basic_string", ptr %3, i32 0, i32 0
  %5 = getelementptr inbounds nuw %"struct.std::__cxx11::basic_string<char>::_Alloc_hider", ptr %4, i32 0, i32 0
  %6 = load ptr, ptr %5, align 8, !tbaa !61
  ret ptr %6
}

; Function Attrs: mustprogress uwtable
define internal noundef i32 @_ZL11closesocketi(i32 noundef %0) #1 {
  %2 = alloca i32, align 4
  store i32 %0, ptr %2, align 4, !tbaa !22
  %3 = load i32, ptr %2, align 4, !tbaa !22
  %4 = call i32 @close(i32 noundef %3)
  ret i32 %4
}

; Function Attrs: inlinehint mustprogress nounwind uwtable
define internal noundef zeroext i16 @_ZL10__bswap_16t(i16 noundef zeroext %0) #6 {
  %2 = alloca i16, align 2
  store i16 %0, ptr %2, align 2, !tbaa !46
  %3 = load i16, ptr %2, align 2, !tbaa !46
  %4 = zext i16 %3 to i32
  %5 = ashr i32 %4, 8
  %6 = and i32 %5, 255
  %7 = load i16, ptr %2, align 2, !tbaa !46
  %8 = zext i16 %7 to i32
  %9 = and i32 %8, 255
  %10 = shl i32 %9, 8
  %11 = or i32 %6, %10
  %12 = trunc i32 %11 to i16
  ret i16 %12
}

; Function Attrs: inlinehint mustprogress nounwind willreturn memory(read) uwtable
define available_externally i32 @atoi(ptr noundef nonnull %0) #8 {
  %2 = alloca ptr, align 8
  store ptr %0, ptr %2, align 8, !tbaa !45
  %3 = load ptr, ptr %2, align 8, !tbaa !45
  %4 = call i64 @strtol(ptr noundef %3, ptr noundef null, i32 noundef 10) #16
  %5 = trunc i64 %4 to i32
  ret i32 %5
}

; Function Attrs: mustprogress nounwind uwtable
define available_externally noundef ptr @_ZNKSt7__cxx1112basic_stringIcSt11char_traitsIcESaIcEE5c_strEv(ptr noundef nonnull align 8 dereferenceable(32) %0) #0 align 2 personality ptr @__gxx_personality_v0 {
  %2 = alloca ptr, align 8
  store ptr %0, ptr %2, align 8, !tbaa !11
  %3 = load ptr, ptr %2, align 8
  %4 = invoke noundef ptr @_ZNKSt7__cxx1112basic_stringIcSt11char_traitsIcESaIcEE7_M_dataEv(ptr noundef nonnull align 8 dereferenceable(32) %3)
          to label %5 unwind label %6

5:                                                ; preds = %1
  ret ptr %4

6:                                                ; preds = %1
  %7 = landingpad { ptr, i32 }
          catch ptr null
  %8 = extractvalue { ptr, i32 } %7, 0
  call void @__clang_call_terminate(ptr %8) #17
  unreachable
}

; Function Attrs: mustprogress uwtable
define hidden noundef zeroext i1 @_Z6AcceptPiRKNSt7__cxx1112basic_stringIcSt11char_traitsIcESaIcEEE(ptr noundef %0, ptr noundef nonnull align 8 dereferenceable(32) %1) #1 {
  %3 = alloca ptr, align 8
  %4 = alloca ptr, align 8
  %5 = alloca %struct.sockaddr_in6, align 4
  %6 = alloca %struct.sockaddr_in6, align 4
  %7 = alloca i32, align 4
  %8 = alloca i8, align 1
  %9 = alloca i32, align 4
  store ptr %0, ptr %3, align 8, !tbaa !6
  store ptr %1, ptr %4, align 8, !tbaa !11
  call void @llvm.lifetime.start.p0(i64 28, ptr %5) #16
  call void @llvm.lifetime.start.p0(i64 28, ptr %6) #16
  call void @llvm.lifetime.start.p0(i64 4, ptr %7) #16
  store i32 28, ptr %7, align 4, !tbaa !22
  call void @llvm.memset.p0.i64(ptr align 4 %5, i8 0, i64 28, i1 false)
  %10 = getelementptr inbounds nuw %struct.sockaddr_in6, ptr %5, i32 0, i32 0
  store i16 10, ptr %10, align 4, !tbaa !47
  %11 = getelementptr inbounds nuw %struct.sockaddr_in6, ptr %5, i32 0, i32 3
  call void @llvm.memcpy.p0.p0.i64(ptr align 4 %11, ptr align 4 @in6addr_any, i64 16, i1 false), !tbaa.struct !48
  %12 = load ptr, ptr %4, align 8, !tbaa !11
  %13 = call noundef ptr @_ZNKSt7__cxx1112basic_stringIcSt11char_traitsIcESaIcEE5c_strEv(ptr noundef nonnull align 8 dereferenceable(32) %12) #16
  %14 = call i32 @atoi(ptr noundef %13) #18
  %15 = trunc i32 %14 to i16
  %16 = call noundef zeroext i16 @_ZL10__bswap_16t(i16 noundef zeroext %15)
  %17 = getelementptr inbounds nuw %struct.sockaddr_in6, ptr %5, i32 0, i32 1
  store i16 %16, ptr %17, align 2, !tbaa !38
  call void @llvm.lifetime.start.p0(i64 1, ptr %8) #16
  store i8 0, ptr %8, align 1, !tbaa !25
  call void @llvm.lifetime.start.p0(i64 4, ptr %9) #16
  store i32 -1, ptr %9, align 4, !tbaa !22
  %18 = getelementptr inbounds nuw %struct.sockaddr_in6, ptr %5, i32 0, i32 0
  %19 = load i16, ptr %18, align 4, !tbaa !47
  %20 = zext i16 %19 to i32
  %21 = call i32 @socket(i32 noundef %20, i32 noundef 1, i32 noundef 0) #16
  store i32 %21, ptr %9, align 4, !tbaa !22
  %22 = load i32, ptr %9, align 4, !tbaa !22
  %23 = icmp slt i32 %22, 0
  br i1 %23, label %24, label %25

24:                                               ; preds = %2
  call void @perror(ptr noundef @.str.2)
  br label %36

25:                                               ; preds = %2
  %26 = load i32, ptr %9, align 4, !tbaa !22
  %27 = call i32 @bind(i32 noundef %26, ptr noundef %5, i32 noundef 28) #16
  %28 = icmp ne i32 %27, 0
  br i1 %28, label %29, label %30

29:                                               ; preds = %25
  call void @perror(ptr noundef @.str.5)
  br label %36

30:                                               ; preds = %25
  %31 = load i32, ptr %9, align 4, !tbaa !22
  %32 = call i32 @listen(i32 noundef %31, i32 noundef 1) #16
  %33 = load i32, ptr %9, align 4, !tbaa !22
  %34 = call i32 @accept(i32 noundef %33, ptr noundef %6, ptr noundef %7)
  %35 = load ptr, ptr %3, align 8, !tbaa !6
  store i32 %34, ptr %35, align 4, !tbaa !22
  store i8 1, ptr %8, align 1, !tbaa !25
  br label %36

36:                                               ; preds = %30, %29, %24
  %37 = load i32, ptr %9, align 4, !tbaa !22
  %38 = call noundef i32 @_ZL11closesocketi(i32 noundef %37)
  %39 = load i8, ptr %8, align 1, !tbaa !25, !range !42, !noundef !43
  %40 = trunc i8 %39 to i1
  call void @llvm.lifetime.end.p0(i64 4, ptr %9) #16
  call void @llvm.lifetime.end.p0(i64 1, ptr %8) #16
  call void @llvm.lifetime.end.p0(i64 4, ptr %7) #16
  call void @llvm.lifetime.end.p0(i64 28, ptr %6) #16
  call void @llvm.lifetime.end.p0(i64 28, ptr %5) #16
  ret i1 %40
}