; Function Attrs: mustprogress uwtable
define hidden noundef zeroext i1 @_Z6AcceptPiRKNSt7__cxx1112basic_stringIcSt11char_traitsIcESaIcEEE(ptr noundef writeonly captures(none) %0, ptr noundef nonnull readonly align 8 captures(none) dereferenceable(32) %1) local_unnamed_addr #1 personality ptr @__gxx_personality_v0 {
  %3 = alloca %struct.sockaddr_in6, align 4
  %4 = alloca %struct.sockaddr_in6, align 4
  %5 = alloca i32, align 4
  call void @llvm.lifetime.start.p0(i64 28, ptr nonnull %3) #19
  call void @llvm.lifetime.start.p0(i64 28, ptr nonnull %4) #19
  call void @llvm.lifetime.start.p0(i64 4, ptr nonnull %5) #19
  store i32 28, ptr %5, align 4, !tbaa !34
  %6 = getelementptr inbounds nuw i8, ptr %3, i64 4
  call void @llvm.memset.p0.i64(ptr noundef nonnull align 4 dereferenceable(28) %6, i8 0, i64 24, i1 false)
  store i16 10, ptr %3, align 4, !tbaa !39
  %7 = getelementptr inbounds nuw i8, ptr %3, i64 8
  call void @llvm.memcpy.p0.p0.i64(ptr noundef nonnull align 4 dereferenceable(16) %7, ptr noundef nonnull align 4 dereferenceable(16) @in6addr_any, i64 16, i1 false), !tbaa.struct !42
  %8 = load ptr, ptr %1, align 8, !tbaa !19
  %9 = tail call i64 @strtol(ptr noundef nonnull captures(none) %8, ptr noundef null, i32 noundef 10) #19
  %10 = trunc i64 %9 to i16
  %rev.i = tail call noundef i16 @llvm.bswap.i16(i16 %10)
  %11 = getelementptr inbounds nuw i8, ptr %3, i64 2
  store i16 %rev.i, ptr %11, align 2, !tbaa !43
  %12 = tail call i32 @socket(i32 noundef 10, i32 noundef 1, i32 noundef 0) #19
  %13 = icmp slt i32 %12, 0
  br i1 %13, label %14, label %15

14:                                               ; preds = %2
  tail call void @perror(ptr noundef nonnull @.str.2) #23
  br label %21

15:                                               ; preds = %2
  %16 = call i32 @bind(i32 noundef %12, ptr noundef nonnull %3, i32 noundef 28) #19
  %.not = icmp eq i32 %16, 0
  br i1 %.not, label %18, label %17

17:                                               ; preds = %15
  call void @perror(ptr noundef nonnull @.str.5) #23
  br label %21

18:                                               ; preds = %15
  %19 = call i32 @listen(i32 noundef %12, i32 noundef 1) #19
  %20 = call i32 @accept(i32 noundef %12, ptr noundef nonnull %4, ptr noundef nonnull %5)
  store i32 %20, ptr %0, align 4, !tbaa !34
  br label %21

21:                                               ; preds = %18, %17, %14
  %.0 = phi i1 [ false, %14 ], [ false, %17 ], [ true, %18 ]
  %22 = call noundef i32 @close(i32 noundef %12)
  call void @llvm.lifetime.end.p0(i64 4, ptr nonnull %5) #19
  call void @llvm.lifetime.end.p0(i64 28, ptr nonnull %4) #19
  call void @llvm.lifetime.end.p0(i64 28, ptr nonnull %3) #19
  ret i1 %.0
}